target datalayout = "e-m:e-p270:32:32-p271:32:32-p272:64:64-i64:64-i128:128-f80:128-n8:16:32:64-S128"
target triple = "x86_64-pc-linux-gnu"

%"class.vcg::Color4" = type { %"class.vcg::Point4" }
%"class.vcg::Point4" = type { [4 x i8] }
%class.EditPaintPlugin = type { %class.QObject, %class.EditTool, [16 x double], [16 x double], [4 x i32], ptr, ptr, ptr, ptr, ptr, %"class.std::vector.16", %"class.vcg::Point3", %"class.std::vector.21", %"class.std::vector.21", %"class.std::vector.21", %"class.std::vector.21", i32, i32, %"struct.EditPaintPlugin::InputEvent", %"struct.EditPaintPlugin::InputEvent", %"struct.EditPaintPlugin::Brush", %class.QHash, %"class.vcg::Color4", ptr, ptr, %class.QPoint, %class.QPoint, %class.QPoint, i32, i32, float, %class.QHash.26, %class.QPoint, %class.QHash.28 }
%class.QObject = type { ptr, %class.QScopedPointer }
%class.QScopedPointer = type { ptr }
%class.EditTool = type { %class.MeshLabPluginLogger }
%class.MeshLabPluginLogger = type { ptr, ptr }
%"class.std::vector.16" = type { %"struct.std::_Vector_base.17" }
%"struct.std::_Vector_base.17" = type { %"struct.std::_Vector_base<std::pair<CVertexO *, EditPaintPlugin::PickingData>, std::allocator<std::pair<CVertexO *, EditPaintPlugin::PickingData>>>::_Vector_impl" }
%"struct.std::_Vector_base<std::pair<CVertexO *, EditPaintPlugin::PickingData>, std::allocator<std::pair<CVertexO *, EditPaintPlugin::PickingData>>>::_Vector_impl" = type { %"struct.std::_Vector_base<std::pair<CVertexO *, EditPaintPlugin::PickingData>, std::allocator<std::pair<CVertexO *, EditPaintPlugin::PickingData>>>::_Vector_impl_data" }
%"struct.std::_Vector_base<std::pair<CVertexO *, EditPaintPlugin::PickingData>, std::allocator<std::pair<CVertexO *, EditPaintPlugin::PickingData>>>::_Vector_impl_data" = type { ptr, ptr, ptr }
%"class.vcg::Point3" = type { [3 x float] }
%"class.std::vector.21" = type { %"struct.std::_Vector_base.22" }
%"struct.std::_Vector_base.22" = type { %"struct.std::_Vector_base<QPointF, std::allocator<QPointF>>::_Vector_impl" }
%"struct.std::_Vector_base<QPointF, std::allocator<QPointF>>::_Vector_impl" = type { %"struct.std::_Vector_base<QPointF, std::allocator<QPointF>>::_Vector_impl_data" }
%"struct.std::_Vector_base<QPointF, std::allocator<QPointF>>::_Vector_impl_data" = type { ptr, ptr, ptr }
%"struct.EditPaintPlugin::InputEvent" = type <{ i32, i32, %class.QPoint, %class.QPoint, %class.QFlags, [4 x i8], double, i8, i8, [6 x i8] }>
%class.QFlags = type { i32 }
%"struct.EditPaintPlugin::Brush" = type { i32, i32, i32, float, i8, i8, i8 }
%class.QHash = type { %union.anon }
%union.anon = type { ptr }
%class.QHash.26 = type { %union.anon.27 }
%union.anon.27 = type { ptr }
%class.QPoint = type { i32, i32 }
%class.QHash.28 = type { %union.anon.29 }
%union.anon.29 = type { ptr }

; Function Attrs: mustprogress nounwind uwtable
define void @_ZN15EditPaintPlugin16setBrushSettingsEiii(ptr noundef nonnull align 8 dereferenceable(704) %0, i32 noundef %1, i32 noundef %2, i32 noundef %3) #4 align 2 {
  %5 = alloca ptr, align 8
  %6 = alloca i32, align 4
  %7 = alloca i32, align 4
  %8 = alloca i32, align 4
  store ptr %0, ptr %5, align 8
  store i32 %1, ptr %6, align 4
  store i32 %2, ptr %7, align 4
  store i32 %3, ptr %8, align 4
  %9 = load ptr, ptr %5, align 8
  %10 = load i32, ptr %6, align 4
  %11 = getelementptr inbounds %class.EditPaintPlugin, ptr %9, i32 0, i32 20
  %12 = getelementptr inbounds %"struct.EditPaintPlugin::Brush", ptr %11, i32 0, i32 0
  store i32 %10, ptr %12, align 8
  %13 = load i32, ptr %7, align 4
  %14 = getelementptr inbounds %class.EditPaintPlugin, ptr %9, i32 0, i32 20
  %15 = getelementptr inbounds %"struct.EditPaintPlugin::Brush", ptr %14, i32 0, i32 1
  store i32 %13, ptr %15, align 4
  %16 = load i32, ptr %8, align 4
  %17 = getelementptr inbounds %class.EditPaintPlugin, ptr %9, i32 0, i32 20
  %18 = getelementptr inbounds %"struct.EditPaintPlugin::Brush", ptr %17, i32 0, i32 2
  store i32 %16, ptr %18, align 8
  ret void
}